target datalayout = "e-m:e-p270:32:32-p271:32:32-p272:64:64-i64:64-i128:128-f80:128-n8:16:32:64-S128"
target triple = "x86_64-pc-linux-gnu"

%struct.nmin_data = type { i64, i64, i64, i64, i64, ptr, i8 }

; Function Attrs: inlinehint nounwind sspstrong willreturn memory(none) uwtable
define internal zeroext i1 @RB_UNDEF_P(i64 noundef %0) #6 {
  %2 = alloca i64, align 8
  store i64 %0, ptr %2, align 8, !tbaa !14
  %3 = load i64, ptr %2, align 8, !tbaa !14
  %4 = icmp eq i64 %3, 36
  ret i1 %4
}

; Function Attrs: nounwind sspstrong uwtable
define internal i64 @enum_yield(i32 noundef %0, i64 noundef %1) #0 {
  %3 = alloca i64, align 8
  %4 = alloca i32, align 4
  %5 = alloca i64, align 8
  store i32 %0, ptr %4, align 4, !tbaa !7
  store i64 %1, ptr %5, align 8, !tbaa !14
  %6 = load i32, ptr %4, align 4, !tbaa !7
  %7 = icmp sgt i32 %6, 1
  br i1 %7, label %8, label %11

8:                                                ; preds = %2
  %9 = load i64, ptr %5, align 8, !tbaa !14
  %10 = call i64 @rb_yield_force_blockarg(i64 noundef %9)
  store i64 %10, ptr %3, align 8
  br label %19

11:                                               ; preds = %2
  %12 = load i32, ptr %4, align 4, !tbaa !7
  %13 = icmp eq i32 %12, 1
  br i1 %13, label %14, label %17

14:                                               ; preds = %11
  %15 = load i64, ptr %5, align 8, !tbaa !14
  %16 = call i64 @rb_yield(i64 noundef %15)
  store i64 %16, ptr %3, align 8
  br label %19

17:                                               ; preds = %11
  %18 = call i64 @rb_yield_values2(i32 noundef 0, ptr noundef null)
  store i64 %18, ptr %3, align 8
  br label %19

19:                                               ; preds = %17, %14, %8
  %20 = load i64, ptr %3, align 8
  ret i64 %20
}

; Function Attrs: nounwind sspstrong uwtable
define dso_local i64 @rb_enum_values_pack(i32 noundef %0, ptr noundef %1) #0 {
  %3 = alloca i64, align 8
  %4 = alloca i32, align 4
  %5 = alloca ptr, align 8
  store i32 %0, ptr %4, align 4, !tbaa !7
  store ptr %1, ptr %5, align 8, !tbaa !11
  %6 = load i32, ptr %4, align 4, !tbaa !7
  %7 = icmp eq i32 %6, 0
  br i1 %7, label %8, label %9

8:                                                ; preds = %2
  store i64 4, ptr %3, align 8
  br label %21

9:                                                ; preds = %2
  %10 = load i32, ptr %4, align 4, !tbaa !7
  %11 = icmp eq i32 %10, 1
  br i1 %11, label %12, label %16

12:                                               ; preds = %9
  %13 = load ptr, ptr %5, align 8, !tbaa !11
  %14 = getelementptr i64, ptr %13, i64 0
  %15 = load i64, ptr %14, align 8, !tbaa !14
  store i64 %15, ptr %3, align 8
  br label %21

16:                                               ; preds = %9
  %17 = load i32, ptr %4, align 4, !tbaa !7
  %18 = sext i32 %17 to i64
  %19 = load ptr, ptr %5, align 8, !tbaa !11
  %20 = call i64 @rb_ary_new_from_values(i64 noundef %18, ptr noundef %19)
  store i64 %20, ptr %3, align 8
  br label %21

21:                                               ; preds = %16, %12, %8
  %22 = load i64, ptr %3, align 8
  ret i64 %22
}

; Function Attrs: nounwind sspstrong uwtable
define internal i64 @nmin_i(i64 noundef %0, i64 noundef %1, i32 noundef %2, ptr noundef %3, i64 noundef %4) #0 {
  %6 = alloca i64, align 8
  %7 = alloca i64, align 8
  %8 = alloca i64, align 8
  %9 = alloca i32, align 4
  %10 = alloca ptr, align 8
  %11 = alloca i64, align 8
  %12 = alloca ptr, align 8
  %13 = alloca i64, align 8
  %14 = alloca i32, align 4
  %15 = alloca i32, align 4
  store i64 %0, ptr %7, align 8, !tbaa !14
  store i64 %1, ptr %8, align 8, !tbaa !14
  store i32 %2, ptr %9, align 4, !tbaa !7
  store ptr %3, ptr %10, align 8, !tbaa !11
  store i64 %4, ptr %11, align 8, !tbaa !14
  call void @llvm.lifetime.start.p0(i64 8, ptr %12) #22
  %16 = load i64, ptr %8, align 8, !tbaa !14
  %17 = inttoptr i64 %16 to ptr
  store ptr %17, ptr %12, align 8, !tbaa !27
  call void @llvm.lifetime.start.p0(i64 8, ptr %13) #22
  br label %18

18:                                               ; preds = %5
  %19 = load i32, ptr %9, align 4, !tbaa !7
  %20 = load ptr, ptr %10, align 8, !tbaa !11
  %21 = call i64 @rb_enum_values_pack(i32 noundef %19, ptr noundef %20)
  store i64 %21, ptr %7, align 8, !tbaa !14
  br label %22

22:                                               ; preds = %18
  br label %23

23:                                               ; preds = %22
  %24 = load ptr, ptr %12, align 8, !tbaa !27
  %25 = getelementptr inbounds nuw %struct.nmin_data, ptr %24, i32 0, i32 6
  %26 = load i8, ptr %25, align 8
  %27 = shl i8 %26, 6
  %28 = ashr i8 %27, 7
  %29 = sext i8 %28 to i32
  %30 = icmp ne i32 %29, 0
  br i1 %30, label %31, label %35

31:                                               ; preds = %23
  %32 = load i32, ptr %9, align 4, !tbaa !7
  %33 = load i64, ptr %7, align 8, !tbaa !14
  %34 = call i64 @enum_yield(i32 noundef %32, i64 noundef %33)
  store i64 %34, ptr %13, align 8, !tbaa !14
  br label %37

35:                                               ; preds = %23
  %36 = load i64, ptr %7, align 8, !tbaa !14
  store i64 %36, ptr %13, align 8, !tbaa !14
  br label %37

37:                                               ; preds = %35, %31
  %38 = load ptr, ptr %12, align 8, !tbaa !27
  %39 = getelementptr inbounds nuw %struct.nmin_data, ptr %38, i32 0, i32 4
  %40 = load i64, ptr %39, align 8, !tbaa !21
  %41 = call zeroext i1 @RB_UNDEF_P(i64 noundef %40) #25
  br i1 %41, label %68, label %42

42:                                               ; preds = %37
  call void @llvm.lifetime.start.p0(i64 4, ptr %14) #22
  %43 = load ptr, ptr %12, align 8, !tbaa !27
  %44 = getelementptr inbounds nuw %struct.nmin_data, ptr %43, i32 0, i32 5
  %45 = load ptr, ptr %44, align 8, !tbaa !22
  %46 = load ptr, ptr %12, align 8, !tbaa !27
  %47 = getelementptr inbounds nuw %struct.nmin_data, ptr %46, i32 0, i32 4
  %48 = load ptr, ptr %12, align 8, !tbaa !27
  %49 = call i32 %45(ptr noundef %13, ptr noundef %47, ptr noundef %48)
  store i32 %49, ptr %14, align 4, !tbaa !7
  %50 = load ptr, ptr %12, align 8, !tbaa !27
  %51 = getelementptr inbounds nuw %struct.nmin_data, ptr %50, i32 0, i32 6
  %52 = load i8, ptr %51, align 8
  %53 = shl i8 %52, 7
  %54 = ashr i8 %53, 7
  %55 = sext i8 %54 to i32
  %56 = icmp ne i32 %55, 0
  br i1 %56, label %57, label %60

57:                                               ; preds = %42
  %58 = load i32, ptr %14, align 4, !tbaa !7
  %59 = sub i32 0, %58
  store i32 %59, ptr %14, align 4, !tbaa !7
  br label %60

60:                                               ; preds = %57, %42
  %61 = load i32, ptr %14, align 4, !tbaa !7
  %62 = icmp sge i32 %61, 0
  br i1 %62, label %63, label %64

63:                                               ; preds = %60
  store i64 4, ptr %6, align 8
  store i32 1, ptr %15, align 4
  br label %65

64:                                               ; preds = %60
  store i32 0, ptr %15, align 4
  br label %65

65:                                               ; preds = %64, %63
  call void @llvm.lifetime.end.p0(i64 4, ptr %14) #22
  %66 = load i32, ptr %15, align 4
  switch i32 %66, label %102 [
    i32 0, label %67
  ]

67:                                               ; preds = %65
  br label %68

68:                                               ; preds = %67, %37
  %69 = load ptr, ptr %12, align 8, !tbaa !27
  %70 = getelementptr inbounds nuw %struct.nmin_data, ptr %69, i32 0, i32 6
  %71 = load i8, ptr %70, align 8
  %72 = shl i8 %71, 6
  %73 = ashr i8 %72, 7
  %74 = sext i8 %73 to i32
  %75 = icmp ne i32 %74, 0
  br i1 %75, label %76, label %82

76:                                               ; preds = %68
  %77 = load ptr, ptr %12, align 8, !tbaa !27
  %78 = getelementptr inbounds nuw %struct.nmin_data, ptr %77, i32 0, i32 3
  %79 = load i64, ptr %78, align 8, !tbaa !20
  %80 = load i64, ptr %13, align 8, !tbaa !14
  %81 = call i64 @rb_ary_push(i64 noundef %79, i64 noundef %80)
  br label %82

82:                                               ; preds = %76, %68
  %83 = load ptr, ptr %12, align 8, !tbaa !27
  %84 = getelementptr inbounds nuw %struct.nmin_data, ptr %83, i32 0, i32 3
  %85 = load i64, ptr %84, align 8, !tbaa !20
  %86 = load i64, ptr %7, align 8, !tbaa !14
  %87 = call i64 @rb_ary_push(i64 noundef %85, i64 noundef %86)
  %88 = load ptr, ptr %12, align 8, !tbaa !27
  %89 = getelementptr inbounds nuw %struct.nmin_data, ptr %88, i32 0, i32 2
  %90 = load i64, ptr %89, align 8, !tbaa !19
  %91 = add i64 %90, 1
  store i64 %91, ptr %89, align 8, !tbaa !19
  %92 = load ptr, ptr %12, align 8, !tbaa !27
  %93 = getelementptr inbounds nuw %struct.nmin_data, ptr %92, i32 0, i32 2
  %94 = load i64, ptr %93, align 8, !tbaa !19
  %95 = load ptr, ptr %12, align 8, !tbaa !27
  %96 = getelementptr inbounds nuw %struct.nmin_data, ptr %95, i32 0, i32 1
  %97 = load i64, ptr %96, align 8, !tbaa !18
  %98 = icmp eq i64 %94, %97
  br i1 %98, label %99, label %101

99:                                               ; preds = %82
  %100 = load ptr, ptr %12, align 8, !tbaa !27
  call void @nmin_filter(ptr noundef %100)
  br label %101

101:                                              ; preds = %99, %82
  store i64 4, ptr %6, align 8
  store i32 1, ptr %15, align 4
  br label %102

102:                                              ; preds = %101, %65
  call void @llvm.lifetime.end.p0(i64 8, ptr %13) #22
  call void @llvm.lifetime.end.p0(i64 8, ptr %12) #22
  %103 = load i64, ptr %6, align 8
  ret i64 %103
}