; Function Attrs: nounwind sspstrong uwtable
define internal noundef i64 @nmin_i(i64 %0, i64 noundef %1, i32 noundef %2, ptr noundef %3, i64 %4) #0 {
  %6 = alloca i64, align 8
  %7 = inttoptr i64 %1 to ptr
  call void @llvm.lifetime.start.p0(i64 8, ptr nonnull %6) #14
  switch i32 %2, label %10 [
    i32 0, label %rb_enum_values_pack.exit
    i32 1, label %8
  ]

8:                                                ; preds = %5
  %9 = load i64, ptr %3, align 8, !tbaa !7
  br label %rb_enum_values_pack.exit

10:                                               ; preds = %5
  %11 = sext i32 %2 to i64
  %12 = tail call i64 @rb_ary_new_from_values(i64 noundef %11, ptr noundef %3) #14
  br label %rb_enum_values_pack.exit

rb_enum_values_pack.exit:                         ; preds = %5, %8, %10
  %.0.i = phi i64 [ %9, %8 ], [ %12, %10 ], [ 4, %5 ]
  %13 = getelementptr inbounds nuw i8, ptr %7, i64 48
  %14 = load i8, ptr %13, align 8
  %.mask = and i8 %14, 2
  %.not = icmp eq i8 %.mask, 0
  br i1 %.not, label %enum_yield.exit, label %15

15:                                               ; preds = %rb_enum_values_pack.exit
  %16 = icmp sgt i32 %2, 1
  br i1 %16, label %17, label %19

17:                                               ; preds = %15
  %18 = tail call i64 @rb_yield_force_blockarg(i64 noundef %.0.i) #14
  br label %enum_yield.exit

19:                                               ; preds = %15
  %20 = icmp eq i32 %2, 1
  br i1 %20, label %21, label %23

21:                                               ; preds = %19
  %22 = tail call i64 @rb_yield(i64 noundef %.0.i) #14
  br label %enum_yield.exit

23:                                               ; preds = %19
  %24 = tail call i64 @rb_yield_values2(i32 noundef 0, ptr noundef null) #14
  br label %enum_yield.exit

enum_yield.exit:                                  ; preds = %23, %21, %17, %rb_enum_values_pack.exit
  %storemerge = phi i64 [ %.0.i, %rb_enum_values_pack.exit ], [ %18, %17 ], [ %22, %21 ], [ %24, %23 ]
  store i64 %storemerge, ptr %6, align 8, !tbaa !7
  %25 = getelementptr inbounds nuw i8, ptr %7, i64 32
  %26 = load i64, ptr %25, align 8, !tbaa !18
  %27 = icmp eq i64 %26, 36
  br i1 %27, label %enum_yield.exit._crit_edge, label %28

enum_yield.exit._crit_edge:                       ; preds = %enum_yield.exit
  %.pre = load i8, ptr %13, align 8
  br label %36

28:                                               ; preds = %enum_yield.exit
  %29 = getelementptr inbounds nuw i8, ptr %7, i64 40
  %30 = load ptr, ptr %29, align 8, !tbaa !19
  %31 = call i32 %30(ptr noundef nonnull %6, ptr noundef nonnull %25, ptr noundef nonnull %7) #14
  %32 = load i8, ptr %13, align 8
  %33 = and i8 %32, 1
  %.not25 = icmp eq i8 %33, 0
  %34 = sub i32 0, %31
  %spec.select = select i1 %.not25, i32 %31, i32 %34
  %35 = icmp slt i32 %spec.select, 0
  br i1 %35, label %36, label %54

36:                                               ; preds = %enum_yield.exit._crit_edge, %28
  %37 = phi i8 [ %.pre, %enum_yield.exit._crit_edge ], [ %32, %28 ]
  %.mask27 = and i8 %37, 2
  %.not26 = icmp eq i8 %.mask27, 0
  br i1 %.not26, label %43, label %38

38:                                               ; preds = %36
  %39 = getelementptr inbounds nuw i8, ptr %7, i64 24
  %40 = load i64, ptr %39, align 8, !tbaa !17
  %41 = load i64, ptr %6, align 8, !tbaa !7
  %42 = call i64 @rb_ary_push(i64 noundef %40, i64 noundef %41) #14
  br label %43

43:                                               ; preds = %38, %36
  %44 = getelementptr inbounds nuw i8, ptr %7, i64 24
  %45 = load i64, ptr %44, align 8, !tbaa !17
  %46 = call i64 @rb_ary_push(i64 noundef %45, i64 noundef %.0.i) #14
  %47 = getelementptr inbounds nuw i8, ptr %7, i64 16
  %48 = load i64, ptr %47, align 8, !tbaa !16
  %49 = add i64 %48, 1
  store i64 %49, ptr %47, align 8, !tbaa !16
  %50 = getelementptr inbounds nuw i8, ptr %7, i64 8
  %51 = load i64, ptr %50, align 8, !tbaa !15
  %52 = icmp eq i64 %49, %51
  br i1 %52, label %53, label %54

53:                                               ; preds = %43
  call fastcc void @nmin_filter(ptr noundef nonnull %7)
  br label %54

54:                                               ; preds = %43, %53, %28
  call void @llvm.lifetime.end.p0(i64 8, ptr nonnull %6) #14
  ret i64 4
}